; Function Attrs: nounwind sspstrong uwtable
define internal fastcc noundef i64 @setup_data(i64 noundef returned %0, i64 noundef %1) unnamed_addr #0 {
  %3 = tail call fastcc i64 @struct_set_members(i64 noundef %0, i64 noundef %1)
  tail call void @rb_define_alloc_func(i64 noundef %0, ptr noundef nonnull @struct_alloc) #19
  %4 = tail call i64 @rb_singleton_class(i64 noundef %0) #19
  tail call void @rb_undef_method(i64 noundef %4, ptr noundef nonnull @.str.31) #19
  tail call void @rb_define_method(i64 noundef %4, ptr noundef nonnull @.str.6, ptr noundef nonnull @rb_data_s_new, i32 noundef -1) #19
  tail call void @rb_define_method(i64 noundef %4, ptr noundef nonnull @.str.21, ptr noundef nonnull @rb_data_s_new, i32 noundef -1) #19
  tail call void @rb_define_method(i64 noundef %4, ptr noundef nonnull @.str.26, ptr noundef nonnull @rb_struct_s_members_m, i32 noundef 0) #19
  tail call void @rb_define_method(i64 noundef %4, ptr noundef nonnull @.str.12, ptr noundef nonnull @rb_struct_s_inspect, i32 noundef 0) #19
  %5 = inttoptr i64 %1 to ptr
  %6 = load i64, ptr %5, align 8, !tbaa !11
  %7 = and i64 %6, 8192
  %.not.i = icmp eq i64 %7, 0
  br i1 %.not.i, label %11, label %8

8:                                                ; preds = %2
  %9 = lshr i64 %6, 15
  %10 = and i64 %9, 127
  br label %rb_array_len.exit

11:                                               ; preds = %2
  %12 = getelementptr inbounds nuw i8, ptr %5, i64 16
  %13 = load i64, ptr %12, align 8, !tbaa !13
  br label %rb_array_len.exit

rb_array_len.exit:                                ; preds = %8, %11
  %.0.i = phi i64 [ %10, %8 ], [ %13, %11 ]
  %14 = icmp sgt i64 %.0.i, 0
  br i1 %14, label %.lr.ph, label %._crit_edge

.lr.ph:                                           ; preds = %rb_array_len.exit
  %15 = getelementptr inbounds nuw i8, ptr %5, i64 16
  %16 = getelementptr inbounds nuw i8, ptr %5, i64 32
  br label %17

17:                                               ; preds = %.lr.ph, %rb_long2num_inline.exit
  %.021 = phi i64 [ 0, %.lr.ph ], [ %33, %rb_long2num_inline.exit ]
  %18 = load i64, ptr %5, align 8, !tbaa !11
  %19 = and i64 %18, 8192
  %.not.i.i = icmp eq i64 %19, 0
  br i1 %.not.i.i, label %20, label %RARRAY_AREF.exit

20:                                               ; preds = %17
  %21 = load ptr, ptr %16, align 8, !tbaa !13
  br label %RARRAY_AREF.exit

RARRAY_AREF.exit:                                 ; preds = %17, %20
  %.0.i.i = phi ptr [ %21, %20 ], [ %15, %17 ]
  %22 = getelementptr i64, ptr %.0.i.i, i64 %.021
  %23 = load i64, ptr %22, align 8, !tbaa !7
  %24 = add nuw i64 %.021, 4611686018427387904
  %or.cond.i = icmp sgt i64 %24, -1
  br i1 %or.cond.i, label %25, label %28

25:                                               ; preds = %RARRAY_AREF.exit
  %26 = shl nuw nsw i64 %.021, 1
  %27 = or disjoint i64 %26, 1
  br label %rb_long2num_inline.exit

28:                                               ; preds = %RARRAY_AREF.exit
  %29 = tail call i64 @rb_int2big(i64 noundef %.021) #19
  br label %rb_long2num_inline.exit

rb_long2num_inline.exit:                          ; preds = %25, %28
  %.0.i20 = phi i64 [ %27, %25 ], [ %29, %28 ]
  %30 = tail call i64 @rb_sym2id(i64 noundef %23) #19
  %31 = tail call i64 @rb_fix2uint(i64 noundef %.0.i20) #19
  %32 = trunc i64 %31 to i32
  tail call void @rb_add_method_optimized(i64 noundef %0, i64 noundef %30, i32 noundef 3, i32 noundef %32, i32 noundef 1) #19
  %33 = add nuw nsw i64 %.021, 1
  %exitcond.not = icmp eq i64 %33, %.0.i
  br i1 %exitcond.not, label %._crit_edge, label %17, !llvm.loop !42

._crit_edge:                                      ; preds = %rb_long2num_inline.exit, %rb_array_len.exit
  ret i64 %0
}